; Function Attrs: nounwind uwtable
define hidden void @zim_SplDoublyLinkedList_unshift(ptr noundef readonly captures(none) %0, ptr readnone captures(none) %1) #0 {
  %3 = alloca ptr, align 8
  call void @llvm.lifetime.start.p0(i64 8, ptr nonnull %3) #13
  %4 = getelementptr inbounds nuw i8, ptr %0, i64 44
  %5 = load i32, ptr %4, align 4, !tbaa !4
  %6 = call i32 (i32, ptr, ...) @zend_parse_parameters(i32 noundef %5, ptr noundef nonnull @.str, ptr noundef nonnull %3) #13
  %7 = icmp eq i32 %6, -1
  br i1 %7, label %8, label %11

8:                                                ; preds = %2
  %9 = load ptr, ptr getelementptr inbounds nuw (i8, ptr @executor_globals, i64 960), align 8, !tbaa !7
  %10 = icmp ne ptr %9, null
  call void @llvm.assume(i1 %10)
  br label %37

11:                                               ; preds = %2
  %12 = getelementptr inbounds nuw i8, ptr %0, i64 32
  %13 = load ptr, ptr %12, align 8, !tbaa !4
  %14 = getelementptr inbounds i8, ptr %13, i64 -72
  %15 = load ptr, ptr %14, align 8, !tbaa !43
  %16 = load ptr, ptr %3, align 8, !tbaa !50
  %17 = call noalias ptr @_emalloc_32() #13
  store ptr null, ptr %17, align 8, !tbaa !53
  %18 = load ptr, ptr %15, align 8, !tbaa !57
  %19 = getelementptr inbounds nuw i8, ptr %17, i64 8
  store ptr %18, ptr %19, align 8, !tbaa !55
  %20 = getelementptr inbounds nuw i8, ptr %17, i64 16
  %21 = load ptr, ptr %16, align 8, !tbaa !4
  %22 = getelementptr inbounds nuw i8, ptr %16, i64 8
  %23 = load i32, ptr %22, align 8, !tbaa !4
  store ptr %21, ptr %20, align 8, !tbaa !4
  %24 = getelementptr inbounds nuw i8, ptr %17, i64 24
  store i32 %23, ptr %24, align 8, !tbaa !4
  %25 = and i32 %23, 65280
  %.not.i = icmp eq i32 %25, 0
  br i1 %.not.i, label %29, label %26

26:                                               ; preds = %11
  %27 = load i32, ptr %21, align 4, !tbaa !56
  %28 = add i32 %27, 1
  store i32 %28, ptr %21, align 4, !tbaa !56
  br label %29

29:                                               ; preds = %26, %11
  %30 = getelementptr inbounds nuw i8, ptr %17, i64 28
  store i32 1, ptr %30, align 4, !tbaa !4
  %.not21.i = icmp eq ptr %18, null
  br i1 %.not21.i, label %32, label %31

31:                                               ; preds = %29
  store ptr %17, ptr %18, align 8, !tbaa !53
  br label %spl_ptr_llist_unshift.exit

32:                                               ; preds = %29
  %33 = getelementptr inbounds nuw i8, ptr %15, i64 8
  store ptr %17, ptr %33, align 8, !tbaa !51
  br label %spl_ptr_llist_unshift.exit

spl_ptr_llist_unshift.exit:                       ; preds = %31, %32
  store ptr %17, ptr %15, align 8, !tbaa !57
  %34 = getelementptr inbounds nuw i8, ptr %15, i64 16
  %35 = load i32, ptr %34, align 8, !tbaa !58
  %36 = add nsw i32 %35, 1
  store i32 %36, ptr %34, align 8, !tbaa !58
  br label %37

37:                                               ; preds = %spl_ptr_llist_unshift.exit, %8
  call void @llvm.lifetime.end.p0(i64 8, ptr nonnull %3) #13
  ret void
}